ARM GAS  /tmp/ccTZKcfS.s 			page 1


   1              		.cpu cortex-m3
   2              		.eabi_attribute 20, 1
   3              		.eabi_attribute 21, 1
   4              		.eabi_attribute 23, 3
   5              		.eabi_attribute 24, 1
   6              		.eabi_attribute 25, 1
   7              		.eabi_attribute 26, 1
   8              		.eabi_attribute 30, 1
   9              		.eabi_attribute 34, 1
  10              		.eabi_attribute 18, 4
  11              		.file	"PIDController.c"
  12              		.text
  13              	.Ltext0:
  14              		.cfi_sections	.debug_frame
  15              		.section	.text.PID_Init,"ax",%progbits
  16              		.align	1
  17              		.global	PID_Init
  18              		.arch armv7-m
  19              		.syntax unified
  20              		.thumb
  21              		.thumb_func
  22              		.fpu softvfp
  24              	PID_Init:
  25              	.LVL0:
  26              	.LFB0:
  27              		.file 1 "Core/Src/PIDController.c"
   1:Core/Src/PIDController.c **** #include "PIDController.h"
   2:Core/Src/PIDController.c **** 
   3:Core/Src/PIDController.c **** void PID_Init(PIDController* pid, float Kp, float Ki, float Kd, float Ts) {
  28              		.loc 1 3 75 view -0
  29              		.cfi_startproc
  30              		@ args = 4, pretend = 0, frame = 0
  31              		@ frame_needed = 0, uses_anonymous_args = 0
  32              		@ link register save eliminated.
   4:Core/Src/PIDController.c ****     pid->Kp = Kp;
  33              		.loc 1 4 5 view .LVU1
  34              		.loc 1 4 13 is_stmt 0 view .LVU2
  35 0000 0160     		str	r1, [r0]	@ float
   5:Core/Src/PIDController.c ****     pid->Ki = Ki;
  36              		.loc 1 5 5 is_stmt 1 view .LVU3
  37              		.loc 1 5 13 is_stmt 0 view .LVU4
  38 0002 4260     		str	r2, [r0, #4]	@ float
   6:Core/Src/PIDController.c ****     pid->Kd = Kd;
  39              		.loc 1 6 5 is_stmt 1 view .LVU5
  40              		.loc 1 6 13 is_stmt 0 view .LVU6
  41 0004 8360     		str	r3, [r0, #8]	@ float
   7:Core/Src/PIDController.c ****     pid->Ts = Ts;
  42              		.loc 1 7 5 is_stmt 1 view .LVU7
  43              		.loc 1 7 13 is_stmt 0 view .LVU8
  44 0006 009B     		ldr	r3, [sp]	@ float
  45              	.LVL1:
  46              		.loc 1 7 13 view .LVU9
  47 0008 C360     		str	r3, [r0, #12]	@ float
   8:Core/Src/PIDController.c **** 
   9:Core/Src/PIDController.c ****     pid->prev_error = 0.0f;
  48              		.loc 1 9 5 is_stmt 1 view .LVU10
  49              		.loc 1 9 21 is_stmt 0 view .LVU11
ARM GAS  /tmp/ccTZKcfS.s 			page 2


  50 000a 0023     		movs	r3, #0
  51 000c 0361     		str	r3, [r0, #16]	@ float
  10:Core/Src/PIDController.c ****     pid->integral = 0.0f;
  52              		.loc 1 10 5 is_stmt 1 view .LVU12
  53              		.loc 1 10 19 is_stmt 0 view .LVU13
  54 000e 4361     		str	r3, [r0, #20]	@ float
  11:Core/Src/PIDController.c ****     pid->output = 0.0f;
  55              		.loc 1 11 5 is_stmt 1 view .LVU14
  56              		.loc 1 11 17 is_stmt 0 view .LVU15
  57 0010 8361     		str	r3, [r0, #24]	@ float
  12:Core/Src/PIDController.c **** }
  58              		.loc 1 12 1 view .LVU16
  59 0012 7047     		bx	lr
  60              		.cfi_endproc
  61              	.LFE0:
  63              		.global	__aeabi_fsub
  64              		.global	__aeabi_fmul
  65              		.global	__aeabi_fadd
  66              		.global	__aeabi_fdiv
  67              		.global	__aeabi_fcmpgt
  68              		.global	__aeabi_fcmplt
  69              		.section	.text.PID_Compute,"ax",%progbits
  70              		.align	1
  71              		.global	PID_Compute
  72              		.syntax unified
  73              		.thumb
  74              		.thumb_func
  75              		.fpu softvfp
  77              	PID_Compute:
  78              	.LVL2:
  79              	.LFB1:
  13:Core/Src/PIDController.c **** 
  14:Core/Src/PIDController.c **** float PID_Compute(PIDController* pid, float setpoint, float measurement) {
  80              		.loc 1 14 74 is_stmt 1 view -0
  81              		.cfi_startproc
  82              		@ args = 0, pretend = 0, frame = 0
  83              		@ frame_needed = 0, uses_anonymous_args = 0
  84              		.loc 1 14 74 is_stmt 0 view .LVU18
  85 0000 2DE9F041 		push	{r4, r5, r6, r7, r8, lr}
  86              	.LCFI0:
  87              		.cfi_def_cfa_offset 24
  88              		.cfi_offset 4, -24
  89              		.cfi_offset 5, -20
  90              		.cfi_offset 6, -16
  91              		.cfi_offset 7, -12
  92              		.cfi_offset 8, -8
  93              		.cfi_offset 14, -4
  94 0004 0446     		mov	r4, r0
  95 0006 0846     		mov	r0, r1
  96              	.LVL3:
  15:Core/Src/PIDController.c ****     float error = setpoint - measurement;
  97              		.loc 1 15 5 is_stmt 1 view .LVU19
  98              		.loc 1 15 11 is_stmt 0 view .LVU20
  99 0008 1146     		mov	r1, r2
 100              	.LVL4:
 101              		.loc 1 15 11 view .LVU21
 102 000a FFF7FEFF 		bl	__aeabi_fsub
ARM GAS  /tmp/ccTZKcfS.s 			page 3


 103              	.LVL5:
 104              		.loc 1 15 11 view .LVU22
 105 000e 0546     		mov	r5, r0
 106              	.LVL6:
  16:Core/Src/PIDController.c ****     pid->integral += error * pid->Ts;
 107              		.loc 1 16 5 is_stmt 1 view .LVU23
 108              		.loc 1 16 33 is_stmt 0 view .LVU24
 109 0010 E768     		ldr	r7, [r4, #12]	@ float
 110              		.loc 1 16 28 view .LVU25
 111 0012 0146     		mov	r1, r0
 112 0014 3846     		mov	r0, r7
 113              	.LVL7:
 114              		.loc 1 16 28 view .LVU26
 115 0016 FFF7FEFF 		bl	__aeabi_fmul
 116              	.LVL8:
 117              		.loc 1 16 19 view .LVU27
 118 001a 6169     		ldr	r1, [r4, #20]	@ float
 119 001c FFF7FEFF 		bl	__aeabi_fadd
 120              	.LVL9:
 121 0020 0646     		mov	r6, r0
 122 0022 6061     		str	r0, [r4, #20]	@ float
  17:Core/Src/PIDController.c ****     float derivative = (error - pid->prev_error) / pid->Ts;
 123              		.loc 1 17 5 is_stmt 1 view .LVU28
 124              		.loc 1 17 31 is_stmt 0 view .LVU29
 125 0024 2169     		ldr	r1, [r4, #16]	@ float
 126 0026 2846     		mov	r0, r5
 127 0028 FFF7FEFF 		bl	__aeabi_fsub
 128              	.LVL10:
 129              		.loc 1 17 11 view .LVU30
 130 002c 3946     		mov	r1, r7
 131 002e FFF7FEFF 		bl	__aeabi_fdiv
 132              	.LVL11:
 133 0032 0746     		mov	r7, r0
 134              	.LVL12:
  18:Core/Src/PIDController.c **** 
  19:Core/Src/PIDController.c ****     pid->output = pid->Kp * error + pid->Ki * pid->integral + pid->Kd * derivative;
 135              		.loc 1 19 5 is_stmt 1 view .LVU31
 136              		.loc 1 19 27 is_stmt 0 view .LVU32
 137 0034 2946     		mov	r1, r5
 138 0036 2068     		ldr	r0, [r4]	@ float
 139              	.LVL13:
 140              		.loc 1 19 27 view .LVU33
 141 0038 FFF7FEFF 		bl	__aeabi_fmul
 142              	.LVL14:
 143 003c 8046     		mov	r8, r0
 144              		.loc 1 19 45 view .LVU34
 145 003e 6168     		ldr	r1, [r4, #4]	@ float
 146 0040 3046     		mov	r0, r6
 147 0042 FFF7FEFF 		bl	__aeabi_fmul
 148              	.LVL15:
 149 0046 0146     		mov	r1, r0
 150              		.loc 1 19 35 view .LVU35
 151 0048 4046     		mov	r0, r8
 152 004a FFF7FEFF 		bl	__aeabi_fadd
 153              	.LVL16:
 154 004e 0646     		mov	r6, r0
 155              		.loc 1 19 71 view .LVU36
ARM GAS  /tmp/ccTZKcfS.s 			page 4


 156 0050 3946     		mov	r1, r7
 157 0052 A068     		ldr	r0, [r4, #8]	@ float
 158 0054 FFF7FEFF 		bl	__aeabi_fmul
 159              	.LVL17:
 160 0058 0146     		mov	r1, r0
 161              		.loc 1 19 61 view .LVU37
 162 005a 3046     		mov	r0, r6
 163 005c FFF7FEFF 		bl	__aeabi_fadd
 164              	.LVL18:
 165 0060 0646     		mov	r6, r0
 166              		.loc 1 19 17 view .LVU38
 167 0062 A061     		str	r0, [r4, #24]	@ float
  20:Core/Src/PIDController.c ****     pid->prev_error = error;
 168              		.loc 1 20 5 is_stmt 1 view .LVU39
 169              		.loc 1 20 21 is_stmt 0 view .LVU40
 170 0064 2561     		str	r5, [r4, #16]	@ float
  21:Core/Src/PIDController.c **** 
  22:Core/Src/PIDController.c ****     // Anti-windup
  23:Core/Src/PIDController.c ****     if (pid->output > VOLTAGE_MAX)
 171              		.loc 1 23 5 is_stmt 1 view .LVU41
 172              		.loc 1 23 8 is_stmt 0 view .LVU42
 173 0066 0949     		ldr	r1, .L11
 174 0068 FFF7FEFF 		bl	__aeabi_fcmpgt
 175              	.LVL19:
 176 006c 20B1     		cbz	r0, .L9
  24:Core/Src/PIDController.c ****         pid->output = VOLTAGE_MAX;
 177              		.loc 1 24 9 is_stmt 1 view .LVU43
 178              		.loc 1 24 21 is_stmt 0 view .LVU44
 179 006e 074B     		ldr	r3, .L11
 180 0070 A361     		str	r3, [r4, #24]	@ float
 181              	.L5:
  25:Core/Src/PIDController.c ****     else if (pid->output < -VOLTAGE_MAX)
  26:Core/Src/PIDController.c ****         pid->output = -VOLTAGE_MAX;
  27:Core/Src/PIDController.c **** 
  28:Core/Src/PIDController.c ****     return pid->output;
 182              		.loc 1 28 5 is_stmt 1 view .LVU45
  29:Core/Src/PIDController.c **** }
 183              		.loc 1 29 1 is_stmt 0 view .LVU46
 184 0072 A069     		ldr	r0, [r4, #24]	@ float
 185 0074 BDE8F081 		pop	{r4, r5, r6, r7, r8, pc}
 186              	.LVL20:
 187              	.L9:
  25:Core/Src/PIDController.c ****     else if (pid->output < -VOLTAGE_MAX)
 188              		.loc 1 25 10 is_stmt 1 view .LVU47
  25:Core/Src/PIDController.c ****     else if (pid->output < -VOLTAGE_MAX)
 189              		.loc 1 25 13 is_stmt 0 view .LVU48
 190 0078 0549     		ldr	r1, .L11+4
 191 007a 3046     		mov	r0, r6
 192 007c FFF7FEFF 		bl	__aeabi_fcmplt
 193              	.LVL21:
 194 0080 0028     		cmp	r0, #0
 195 0082 F6D0     		beq	.L5
  26:Core/Src/PIDController.c **** 
 196              		.loc 1 26 9 is_stmt 1 view .LVU49
  26:Core/Src/PIDController.c **** 
 197              		.loc 1 26 21 is_stmt 0 view .LVU50
 198 0084 024B     		ldr	r3, .L11+4
ARM GAS  /tmp/ccTZKcfS.s 			page 5


 199 0086 A361     		str	r3, [r4, #24]	@ float
 200 0088 F3E7     		b	.L5
 201              	.L12:
 202 008a 00BF     		.align	2
 203              	.L11:
 204 008c 00004041 		.word	1094713344
 205 0090 000040C1 		.word	-1052770304
 206              		.cfi_endproc
 207              	.LFE1:
 209              		.text
 210              	.Letext0:
 211              		.file 2 "Core/Inc/PIDController.h"
ARM GAS  /tmp/ccTZKcfS.s 			page 6

